; Function Attrs: nounwind uwtable
define ptr @X509_NAME_get_entry(ptr noundef readonly captures(address_is_null) %0, i32 noundef %1) local_unnamed_addr #0 {
  %3 = icmp eq ptr %0, null
  br i1 %3, label %12, label %4

4:                                                ; preds = %2
  %5 = load ptr, ptr %0, align 8, !tbaa !3
  %6 = tail call i32 @OPENSSL_sk_num(ptr noundef %5) #6
  %7 = icmp sle i32 %6, %1
  %8 = icmp slt i32 %1, 0
  %or.cond = or i1 %8, %7
  br i1 %or.cond, label %12, label %9

9:                                                ; preds = %4
  %10 = load ptr, ptr %0, align 8, !tbaa !3
  %11 = tail call ptr @OPENSSL_sk_value(ptr noundef %10, i32 noundef %1) #6
  br label %12

12:                                               ; preds = %2, %4, %9
  %.0 = phi ptr [ %11, %9 ], [ null, %4 ], [ null, %2 ]
  ret ptr %.0
}